; Function Attrs: mustprogress nofree nounwind willreturn memory(read, inaccessiblemem: none) uwtable
define internal i32 @COVER_cmp(ptr noundef readonly captures(none) %0, ptr noundef readonly captures(none) %1, ptr noundef readonly captures(none) %2) unnamed_addr #18 {
  %4 = load i32, ptr %1, align 4, !tbaa !19
  %5 = load i32, ptr %2, align 4, !tbaa !19
  %6 = load ptr, ptr %0, align 8, !tbaa !36
  %7 = zext i32 %4 to i64
  %8 = getelementptr inbounds nuw i8, ptr %6, i64 %7
  %9 = zext i32 %5 to i64
  %10 = getelementptr inbounds nuw i8, ptr %6, i64 %9
  %11 = getelementptr inbounds nuw i8, ptr %0, i64 80
  %12 = load i32, ptr %11, align 8, !tbaa !41
  %13 = zext i32 %12 to i64
  %14 = tail call i32 @memcmp(ptr noundef %8, ptr noundef %10, i64 noundef %13) #27
  ret i32 %14
}